target datalayout = "e-m:e-p270:32:32-p271:32:32-p272:64:64-i64:64-i128:128-f80:128-n8:16:32:64-S128"
target triple = "x86_64-pc-linux-gnu"

%struct.pointf_s = type { double, double }
%struct.GVJ_s = type { ptr, ptr, ptr, ptr, ptr, ptr, i32, ptr, ptr, ptr, ptr, i64, i64, ptr, i32, %struct.gvplugin_active_render_s, %struct.gvplugin_active_device_s, %struct.gvplugin_active_loadimage_t, ptr, %struct.pointf_s, i8, ptr, i32, ptr, i8, ptr, i32, i32, i32, %struct.point, %struct.point, %struct.point, %struct.point, %struct.point, i32, %struct.boxf, %struct.pointf_s, %struct.boxf, %struct.boxf, %struct.pointf_s, %struct.pointf_s, double, i32, %struct.pointf_s, %struct.boxf, %struct.pointf_s, %struct.pointf_s, i32, i32, %struct.box, %struct.box, %struct.pointf_s, %struct.pointf_s, %struct.pointf_s, i8, i8, i8, i8, i8, i8, %struct.pointf_s, %struct.pointf_s, ptr, ptr, ptr, ptr, ptr, ptr, i64, ptr }
%struct.gvplugin_active_render_s = type { ptr, i32, ptr, ptr }
%struct.gvplugin_active_device_s = type { ptr, i32, ptr, ptr }
%struct.gvplugin_active_loadimage_t = type { ptr, i32, ptr }
%struct.point = type { i32, i32 }
%struct.boxf = type { %struct.pointf_s, %struct.pointf_s }
%struct.box = type { %struct.point, %struct.point }
%struct.obj_state_s = type { ptr, i32, %union.anon, i32, %struct.color_s, %struct.color_s, %struct.color_s, i32, double, i32, i32, double, ptr, double, double, double, ptr, ptr, ptr, ptr, ptr, ptr, ptr, ptr, ptr, ptr, ptr, ptr, ptr, ptr, ptr, ptr, ptr, i16, i32, i64, ptr, i64, ptr, ptr, i32, ptr, i32, ptr }
%union.anon = type { ptr }
%struct.color_s = type { %union.anon.0, i32 }
%union.anon.0 = type { [4 x double] }

@dashed = internal global [1 x double] [double 6.000000e+00], align 8
@dashed_len = internal global i32 1, align 4
@dotted = internal global [2 x double] [double 2.000000e+00, double 6.000000e+00], align 16
@dotted_len = internal global i32 2, align 4

; Function Attrs: nounwind uwtable
define internal void @cairogen_set_color(ptr noundef %0, ptr noundef %1) #0 {
  %3 = alloca ptr, align 8
  %4 = alloca ptr, align 8
  store ptr %0, ptr %3, align 8, !tbaa !34
  store ptr %1, ptr %4, align 8, !tbaa !89
  %5 = load ptr, ptr %3, align 8, !tbaa !34
  %6 = load ptr, ptr %4, align 8, !tbaa !89
  %7 = getelementptr inbounds nuw %struct.color_s, ptr %6, i32 0, i32 0
  %8 = getelementptr inbounds [4 x double], ptr %7, i64 0, i64 0
  %9 = load double, ptr %8, align 8, !tbaa !44
  %10 = load ptr, ptr %4, align 8, !tbaa !89
  %11 = getelementptr inbounds nuw %struct.color_s, ptr %10, i32 0, i32 0
  %12 = getelementptr inbounds [4 x double], ptr %11, i64 0, i64 1
  %13 = load double, ptr %12, align 8, !tbaa !44
  %14 = load ptr, ptr %4, align 8, !tbaa !89
  %15 = getelementptr inbounds nuw %struct.color_s, ptr %14, i32 0, i32 0
  %16 = getelementptr inbounds [4 x double], ptr %15, i64 0, i64 2
  %17 = load double, ptr %16, align 8, !tbaa !44
  %18 = load ptr, ptr %4, align 8, !tbaa !89
  %19 = getelementptr inbounds nuw %struct.color_s, ptr %18, i32 0, i32 0
  %20 = getelementptr inbounds [4 x double], ptr %19, i64 0, i64 3
  %21 = load double, ptr %20, align 8, !tbaa !44
  call void @cairo_set_source_rgba(ptr noundef %5, double noundef %9, double noundef %13, double noundef %17, double noundef %21)
  ret void
}

; Function Attrs: nounwind uwtable
define internal void @cairogen_set_penstyle(ptr noundef %0, ptr noundef %1) #0 {
  %3 = alloca ptr, align 8
  %4 = alloca ptr, align 8
  %5 = alloca ptr, align 8
  store ptr %0, ptr %3, align 8, !tbaa !3
  store ptr %1, ptr %4, align 8, !tbaa !34
  call void @llvm.lifetime.start.p0(i64 8, ptr %5) #14
  %6 = load ptr, ptr %3, align 8, !tbaa !3
  %7 = getelementptr inbounds nuw %struct.GVJ_s, ptr %6, i32 0, i32 4
  %8 = load ptr, ptr %7, align 8, !tbaa !64
  store ptr %8, ptr %5, align 8, !tbaa !65
  %9 = load ptr, ptr %5, align 8, !tbaa !65
  %10 = getelementptr inbounds nuw %struct.obj_state_s, ptr %9, i32 0, i32 9
  %11 = load i32, ptr %10, align 8, !tbaa !91
  %12 = icmp eq i32 %11, 1
  br i1 %12, label %13, label %16

13:                                               ; preds = %2
  %14 = load ptr, ptr %4, align 8, !tbaa !34
  %15 = load i32, ptr @dashed_len, align 4, !tbaa !42
  call void @cairo_set_dash(ptr noundef %14, ptr noundef @dashed, i32 noundef %15, double noundef 0.000000e+00)
  br label %27

16:                                               ; preds = %2
  %17 = load ptr, ptr %5, align 8, !tbaa !65
  %18 = getelementptr inbounds nuw %struct.obj_state_s, ptr %17, i32 0, i32 9
  %19 = load i32, ptr %18, align 8, !tbaa !91
  %20 = icmp eq i32 %19, 2
  br i1 %20, label %21, label %24

21:                                               ; preds = %16
  %22 = load ptr, ptr %4, align 8, !tbaa !34
  %23 = load i32, ptr @dotted_len, align 4, !tbaa !42
  call void @cairo_set_dash(ptr noundef %22, ptr noundef @dotted, i32 noundef %23, double noundef 0.000000e+00)
  br label %26

24:                                               ; preds = %16
  %25 = load ptr, ptr %4, align 8, !tbaa !34
  call void @cairo_set_dash(ptr noundef %25, ptr noundef @dashed, i32 noundef 0, double noundef 0.000000e+00)
  br label %26

26:                                               ; preds = %24, %21
  br label %27

27:                                               ; preds = %26, %13
  %28 = load ptr, ptr %4, align 8, !tbaa !34
  %29 = load ptr, ptr %5, align 8, !tbaa !65
  %30 = getelementptr inbounds nuw %struct.obj_state_s, ptr %29, i32 0, i32 11
  %31 = load double, ptr %30, align 8, !tbaa !92
  call void @cairo_set_line_width(ptr noundef %28, double noundef %31)
  call void @llvm.lifetime.end.p0(i64 8, ptr %5) #14
  ret void
}

; Function Attrs: nounwind uwtable
define internal void @cairogen_polyline(ptr noundef %0, ptr noundef %1, i64 noundef %2) #0 {
  %4 = alloca ptr, align 8
  %5 = alloca ptr, align 8
  %6 = alloca i64, align 8
  %7 = alloca ptr, align 8
  %8 = alloca ptr, align 8
  %9 = alloca i64, align 8
  store ptr %0, ptr %4, align 8, !tbaa !3
  store ptr %1, ptr %5, align 8, !tbaa !81
  store i64 %2, ptr %6, align 8, !tbaa !43
  call void @llvm.lifetime.start.p0(i64 8, ptr %7) #14
  %10 = load ptr, ptr %4, align 8, !tbaa !3
  %11 = getelementptr inbounds nuw %struct.GVJ_s, ptr %10, i32 0, i32 4
  %12 = load ptr, ptr %11, align 8, !tbaa !64
  store ptr %12, ptr %7, align 8, !tbaa !65
  call void @llvm.lifetime.start.p0(i64 8, ptr %8) #14
  %13 = load ptr, ptr %4, align 8, !tbaa !3
  %14 = getelementptr inbounds nuw %struct.GVJ_s, ptr %13, i32 0, i32 23
  %15 = load ptr, ptr %14, align 8, !tbaa !33
  store ptr %15, ptr %8, align 8, !tbaa !34
  %16 = load ptr, ptr %4, align 8, !tbaa !3
  %17 = load ptr, ptr %8, align 8, !tbaa !34
  call void @cairogen_set_penstyle(ptr noundef %16, ptr noundef %17)
  %18 = load ptr, ptr %8, align 8, !tbaa !34
  %19 = load ptr, ptr %5, align 8, !tbaa !81
  %20 = getelementptr inbounds %struct.pointf_s, ptr %19, i64 0
  %21 = getelementptr inbounds nuw %struct.pointf_s, ptr %20, i32 0, i32 0
  %22 = load double, ptr %21, align 8, !tbaa !71
  %23 = load ptr, ptr %5, align 8, !tbaa !81
  %24 = getelementptr inbounds %struct.pointf_s, ptr %23, i64 0
  %25 = getelementptr inbounds nuw %struct.pointf_s, ptr %24, i32 0, i32 1
  %26 = load double, ptr %25, align 8, !tbaa !72
  %27 = fneg double %26
  call void @cairo_move_to(ptr noundef %18, double noundef %22, double noundef %27)
  call void @llvm.lifetime.start.p0(i64 8, ptr %9) #14
  store i64 1, ptr %9, align 8, !tbaa !43
  br label %28

28:                                               ; preds = %46, %3
  %29 = load i64, ptr %9, align 8, !tbaa !43
  %30 = load i64, ptr %6, align 8, !tbaa !43
  %31 = icmp ult i64 %29, %30
  br i1 %31, label %33, label %32

32:                                               ; preds = %28
  call void @llvm.lifetime.end.p0(i64 8, ptr %9) #14
  br label %49

33:                                               ; preds = %28
  %34 = load ptr, ptr %8, align 8, !tbaa !34
  %35 = load ptr, ptr %5, align 8, !tbaa !81
  %36 = load i64, ptr %9, align 8, !tbaa !43
  %37 = getelementptr inbounds nuw %struct.pointf_s, ptr %35, i64 %36
  %38 = getelementptr inbounds nuw %struct.pointf_s, ptr %37, i32 0, i32 0
  %39 = load double, ptr %38, align 8, !tbaa !71
  %40 = load ptr, ptr %5, align 8, !tbaa !81
  %41 = load i64, ptr %9, align 8, !tbaa !43
  %42 = getelementptr inbounds nuw %struct.pointf_s, ptr %40, i64 %41
  %43 = getelementptr inbounds nuw %struct.pointf_s, ptr %42, i32 0, i32 1
  %44 = load double, ptr %43, align 8, !tbaa !72
  %45 = fneg double %44
  call void @cairo_line_to(ptr noundef %34, double noundef %39, double noundef %45)
  br label %46

46:                                               ; preds = %33
  %47 = load i64, ptr %9, align 8, !tbaa !43
  %48 = add i64 %47, 1
  store i64 %48, ptr %9, align 8, !tbaa !43
  br label %28, !llvm.loop !85

49:                                               ; preds = %32
  %50 = load ptr, ptr %8, align 8, !tbaa !34
  %51 = load ptr, ptr %7, align 8, !tbaa !65
  %52 = getelementptr inbounds nuw %struct.obj_state_s, ptr %51, i32 0, i32 4
  call void @cairogen_set_color(ptr noundef %50, ptr noundef %52)
  %53 = load ptr, ptr %8, align 8, !tbaa !34
  call void @cairo_stroke(ptr noundef %53)
  call void @llvm.lifetime.end.p0(i64 8, ptr %8) #14
  call void @llvm.lifetime.end.p0(i64 8, ptr %7) #14
  ret void
}