; Function Attrs: nounwind uwtable
define internal void @cairogen_polyline(ptr noundef readonly captures(none) %0, ptr noundef readonly captures(none) %1, i64 noundef %2) #0 {
  %4 = getelementptr inbounds nuw i8, ptr %0, i64 32
  %5 = load ptr, ptr %4, align 8, !tbaa !56
  %6 = getelementptr inbounds nuw i8, ptr %0, i64 256
  %7 = load ptr, ptr %6, align 8, !tbaa !32
  %8 = getelementptr inbounds nuw i8, ptr %5, i64 168
  %9 = load i32, ptr %8, align 8, !tbaa !72
  switch i32 %9, label %12 [
    i32 1, label %10
    i32 2, label %11
  ]

10:                                               ; preds = %3
  tail call void @cairo_set_dash(ptr noundef %7, ptr noundef nonnull @dashed, i32 noundef 1, double noundef 0.000000e+00) #20
  br label %cairogen_set_penstyle.exit

11:                                               ; preds = %3
  tail call void @cairo_set_dash(ptr noundef %7, ptr noundef nonnull @dotted, i32 noundef 2, double noundef 0.000000e+00) #20
  br label %cairogen_set_penstyle.exit

12:                                               ; preds = %3
  tail call void @cairo_set_dash(ptr noundef %7, ptr noundef nonnull @dashed, i32 noundef 0, double noundef 0.000000e+00) #20
  br label %cairogen_set_penstyle.exit

cairogen_set_penstyle.exit:                       ; preds = %10, %11, %12
  %13 = getelementptr inbounds nuw i8, ptr %5, i64 176
  %14 = load double, ptr %13, align 8, !tbaa !73
  tail call void @cairo_set_line_width(ptr noundef %7, double noundef %14) #20
  %15 = load double, ptr %1, align 8, !tbaa !62
  %16 = getelementptr inbounds nuw i8, ptr %1, i64 8
  %17 = load double, ptr %16, align 8, !tbaa !64
  %18 = fneg double %17
  tail call void @cairo_move_to(ptr noundef %7, double noundef %15, double noundef %18) #20
  %19 = icmp ugt i64 %2, 1
  br i1 %19, label %.lr.ph, label %._crit_edge

._crit_edge:                                      ; preds = %.lr.ph, %cairogen_set_penstyle.exit
  %20 = getelementptr inbounds nuw i8, ptr %5, i64 32
  %21 = load double, ptr %20, align 8, !tbaa !38
  %22 = getelementptr inbounds nuw i8, ptr %5, i64 40
  %23 = load double, ptr %22, align 8, !tbaa !38
  %24 = getelementptr inbounds nuw i8, ptr %5, i64 48
  %25 = load double, ptr %24, align 8, !tbaa !38
  %26 = getelementptr inbounds nuw i8, ptr %5, i64 56
  %27 = load double, ptr %26, align 8, !tbaa !38
  tail call void @cairo_set_source_rgba(ptr noundef %7, double noundef %21, double noundef %23, double noundef %25, double noundef %27) #20
  tail call void @cairo_stroke(ptr noundef %7) #20
  ret void

.lr.ph:                                           ; preds = %cairogen_set_penstyle.exit, %.lr.ph
  %.017 = phi i64 [ %33, %.lr.ph ], [ 1, %cairogen_set_penstyle.exit ]
  %28 = getelementptr inbounds nuw %struct.pointf_s, ptr %1, i64 %.017
  %29 = load double, ptr %28, align 8, !tbaa !62
  %30 = getelementptr inbounds nuw i8, ptr %28, i64 8
  %31 = load double, ptr %30, align 8, !tbaa !64
  %32 = fneg double %31
  tail call void @cairo_line_to(ptr noundef %7, double noundef %29, double noundef %32) #20
  %33 = add nuw i64 %.017, 1
  %exitcond.not = icmp eq i64 %33, %2
  br i1 %exitcond.not, label %._crit_edge, label %.lr.ph, !llvm.loop !77
}